target datalayout = "e-m:e-p270:32:32-p271:32:32-p272:64:64-i64:64-i128:128-f80:128-n8:16:32:64-S128"
target triple = "x86_64-unknown-linux-gnu"

%class.psort_inst_cache = type { i32, ptr, %class.obj_map.14 }
%class.obj_map.14 = type { %class.core_hashtable.15 }
%class.core_hashtable.15 = type <{ ptr, i32, i32, i32, [4 x i8] }>
%class.pdecl_manager = type { ptr, ptr, %class.id_gen, %class.obj_map, %class.ptr_hashtable, %class.ptr_vector, ptr, i32, ptr, %class.obj_map.3, %class.obj_hashtable, %class.ptr_vector.10, %class.svector, %class.svector.12, %class.svector }
%class.id_gen = type { i32, %class.svector }
%class.obj_map = type { %class.core_hashtable }
%class.core_hashtable = type <{ ptr, i32, i32, i32, [4 x i8] }>
%class.ptr_hashtable = type { %class.core_hashtable.base.1, [4 x i8] }
%class.core_hashtable.base.1 = type <{ ptr, i32, i32, i32 }>
%class.ptr_vector = type { %class.vector.2 }
%class.vector.2 = type { ptr }
%class.obj_map.3 = type { %class.core_hashtable.4 }
%class.core_hashtable.4 = type <{ ptr, i32, i32, i32, [4 x i8] }>
%class.obj_hashtable = type { %class.core_hashtable.base.9, [4 x i8] }
%class.core_hashtable.base.9 = type <{ ptr, i32, i32, i32 }>
%class.ptr_vector.10 = type { %class.vector.11 }
%class.vector.11 = type { ptr }
%class.svector.12 = type { %class.vector.13 }
%class.vector.13 = type { ptr }
%class.svector = type { %class.vector }
%class.vector = type { ptr }
%"struct.obj_map<sort, void *>::key_data" = type { ptr, ptr }
%"class.obj_map<sort, void *>::obj_map_entry" = type { %"struct.obj_map<sort, void *>::key_data" }

; Function Attrs: mustprogress uwtable
define linkonce_odr hidden void @_Z12dealloc_vectIN7obj_mapI4sortPvE13obj_map_entryEEvPT_j(ptr noundef %ptr, i32 noundef %sz) #4 comdat {
entry:
  %ptr.addr = alloca ptr, align 8
  %sz.addr = alloca i32, align 4
  %curr = alloca ptr, align 8
  %i = alloca i32, align 4
  store ptr %ptr, ptr %ptr.addr, align 8
  store i32 %sz, ptr %sz.addr, align 4
  %0 = load ptr, ptr %ptr.addr, align 8
  %cmp = icmp eq ptr %0, null
  br i1 %cmp, label %if.then, label %if.end

if.then:                                          ; preds = %entry
  br label %return

if.end:                                           ; preds = %entry
  %1 = load ptr, ptr %ptr.addr, align 8
  store ptr %1, ptr %curr, align 8
  store i32 0, ptr %i, align 4
  br label %for.cond

for.cond:                                         ; preds = %for.inc, %if.end
  %2 = load i32, ptr %i, align 4
  %3 = load i32, ptr %sz.addr, align 4
  %cmp1 = icmp ult i32 %2, %3
  br i1 %cmp1, label %for.body, label %for.end

for.body:                                         ; preds = %for.cond
  br label %for.inc

for.inc:                                          ; preds = %for.body
  %4 = load i32, ptr %i, align 4
  %inc = add i32 %4, 1
  store i32 %inc, ptr %i, align 4
  %5 = load ptr, ptr %curr, align 8
  %incdec.ptr = getelementptr inbounds %"class.obj_map<sort, void *>::obj_map_entry", ptr %5, i32 1
  store ptr %incdec.ptr, ptr %curr, align 8
  br label %for.cond, !llvm.loop !34

for.end:                                          ; preds = %for.cond
  %6 = load ptr, ptr %ptr.addr, align 8
  call void @_ZN6memory10deallocateEPv(ptr noundef %6)
  br label %return

return:                                           ; preds = %for.end, %if.then
  ret void
}

; Function Attrs: mustprogress uwtable
define linkonce_odr hidden void @_ZN14core_hashtableIN7obj_mapI4sortPvE13obj_map_entryE8obj_hashINS3_8key_dataEE10default_eqIS6_EE12delete_tableEv(ptr noundef nonnull align 8 dereferenceable(20) %this) #4 comdat align 2 {
entry:
  %this.addr = alloca ptr, align 8
  store ptr %this, ptr %this.addr, align 8
  %this1 = load ptr, ptr %this.addr, align 8
  %m_table = getelementptr inbounds %class.core_hashtable.15, ptr %this1, i32 0, i32 0
  %0 = load ptr, ptr %m_table, align 8
  %m_capacity = getelementptr inbounds %class.core_hashtable.15, ptr %this1, i32 0, i32 1
  %1 = load i32, ptr %m_capacity, align 8
  call void @_Z12dealloc_vectIN7obj_mapI4sortPvE13obj_map_entryEEvPT_j(ptr noundef %0, i32 noundef %1)
  %m_table2 = getelementptr inbounds %class.core_hashtable.15, ptr %this1, i32 0, i32 0
  store ptr null, ptr %m_table2, align 8
  ret void
}

; Function Attrs: mustprogress nounwind uwtable
define linkonce_odr hidden void @_ZN14core_hashtableIN7obj_mapI4sortPvE13obj_map_entryE8obj_hashINS3_8key_dataEE10default_eqIS6_EED2Ev(ptr noundef nonnull align 8 dereferenceable(20) %this) unnamed_addr #5 comdat align 2 personality ptr @__gxx_personality_v0 {
entry:
  %this.addr = alloca ptr, align 8
  store ptr %this, ptr %this.addr, align 8
  %this1 = load ptr, ptr %this.addr, align 8
  invoke void @_ZN14core_hashtableIN7obj_mapI4sortPvE13obj_map_entryE8obj_hashINS3_8key_dataEE10default_eqIS6_EE12delete_tableEv(ptr noundef nonnull align 8 dereferenceable(20) %this1)
          to label %invoke.cont unwind label %terminate.lpad

invoke.cont:                                      ; preds = %entry
  ret void

terminate.lpad:                                   ; preds = %entry
  %0 = landingpad { ptr, i32 }
          catch ptr null
  %1 = extractvalue { ptr, i32 } %0, 0
  call void @__clang_call_terminate(ptr %1) #13
  unreachable
}

; Function Attrs: mustprogress nounwind uwtable
define linkonce_odr hidden void @_ZN7obj_mapI4sortPvED2Ev(ptr noundef nonnull align 8 dereferenceable(24) %this) unnamed_addr #5 comdat align 2 {
entry:
  %this.addr = alloca ptr, align 8
  store ptr %this, ptr %this.addr, align 8
  %this1 = load ptr, ptr %this.addr, align 8
  %m_table = getelementptr inbounds %class.obj_map.14, ptr %this1, i32 0, i32 0
  call void @_ZN14core_hashtableIN7obj_mapI4sortPvE13obj_map_entryE8obj_hashINS3_8key_dataEE10default_eqIS6_EED2Ev(ptr noundef nonnull align 8 dereferenceable(20) %m_table) #3
  ret void
}

; Function Attrs: mustprogress nounwind uwtable
define linkonce_odr hidden noundef nonnull align 8 dereferenceable(520) ptr @_ZNK13pdecl_manager1aEv(ptr noundef nonnull align 8 dereferenceable(192) %this) #5 comdat align 2 {
entry:
  %this.addr = alloca ptr, align 8
  store ptr %this, ptr %this.addr, align 8
  %this1 = load ptr, ptr %this.addr, align 8
  %m_allocator = getelementptr inbounds %class.pdecl_manager, ptr %this1, i32 0, i32 1
  %0 = load ptr, ptr %m_allocator, align 8
  ret ptr %0
}

; Function Attrs: mustprogress nounwind uwtable
define linkonce_odr hidden void @_ZN16psort_inst_cacheD2Ev(ptr noundef nonnull align 8 dereferenceable(40) %this) unnamed_addr #5 comdat align 2 {
entry:
  %this.addr = alloca ptr, align 8
  store ptr %this, ptr %this.addr, align 8
  %this1 = load ptr, ptr %this.addr, align 8
  %m_map = getelementptr inbounds %class.psort_inst_cache, ptr %this1, i32 0, i32 2
  call void @_ZN7obj_mapI4sortPvED2Ev(ptr noundef nonnull align 8 dereferenceable(24) %m_map) #3
  ret void
}

; Function Attrs: mustprogress uwtable
define hidden void @_ZN13pdecl_manager14del_inst_cacheEP16psort_inst_cache(ptr noundef nonnull align 8 dereferenceable(192) %this, ptr noundef %c) #4 align 2 {
entry:
  %this.addr = alloca ptr, align 8
  %c.addr = alloca ptr, align 8
  store ptr %this, ptr %this.addr, align 8
  store ptr %c, ptr %c.addr, align 8
  %this1 = load ptr, ptr %this.addr, align 8
  %0 = load ptr, ptr %c.addr, align 8
  %tobool = icmp ne ptr %0, null
  br i1 %tobool, label %if.then, label %if.end

if.then:                                          ; preds = %entry
  %1 = load ptr, ptr %c.addr, align 8
  call void @_ZN16psort_inst_cache8finalizeER13pdecl_manager(ptr noundef nonnull align 8 dereferenceable(40) %1, ptr noundef nonnull align 8 dereferenceable(192) %this1)
  %2 = load ptr, ptr %c.addr, align 8
  call void @_ZN16psort_inst_cacheD2Ev(ptr noundef nonnull align 8 dereferenceable(40) %2) #3
  %call = call noundef nonnull align 8 dereferenceable(520) ptr @_ZNK13pdecl_manager1aEv(ptr noundef nonnull align 8 dereferenceable(192) %this1)
  %3 = load ptr, ptr %c.addr, align 8
  call void @_ZN22small_object_allocator10deallocateEmPv(ptr noundef nonnull align 8 dereferenceable(520) %call, i64 noundef 40, ptr noundef %3)
  br label %if.end

if.end:                                           ; preds = %if.then, %entry
  ret void
}