; Function Attrs: mustprogress uwtable
define hidden void @_ZN13pdecl_manager14del_inst_cacheEP16psort_inst_cache(ptr noundef nonnull align 8 dereferenceable(192) %this, ptr noundef %c) local_unnamed_addr #3 align 2 personality ptr @__gxx_personality_v0 {
entry:
  %tobool.not = icmp eq ptr %c, null
  br i1 %tobool.not, label %if.end, label %if.then

if.then:                                          ; preds = %entry
  tail call void @_ZN16psort_inst_cache8finalizeER13pdecl_manager(ptr noundef nonnull align 8 dereferenceable(40) %c, ptr noundef nonnull align 8 dereferenceable(192) %this)
  %m_map.i = getelementptr inbounds i8, ptr %c, i64 16
  %0 = load ptr, ptr %m_map.i, align 8
  %cmp.i.i.i.i.i = icmp eq ptr %0, null
  br i1 %cmp.i.i.i.i.i, label %_ZN16psort_inst_cacheD2Ev.exit, label %for.cond.preheader.i.i.i.i.i

for.cond.preheader.i.i.i.i.i:                     ; preds = %if.then
  invoke void @_ZN6memory10deallocateEPv(ptr noundef nonnull %0)
          to label %_ZN16psort_inst_cacheD2Ev.exit unwind label %terminate.lpad.i.i.i

terminate.lpad.i.i.i:                             ; preds = %for.cond.preheader.i.i.i.i.i
  %1 = landingpad { ptr, i32 }
          catch ptr null
  %2 = extractvalue { ptr, i32 } %1, 0
  tail call void @__clang_call_terminate(ptr %2) #21
  unreachable

_ZN16psort_inst_cacheD2Ev.exit:                   ; preds = %if.then, %for.cond.preheader.i.i.i.i.i
  store ptr null, ptr %m_map.i, align 8
  %m_allocator.i = getelementptr inbounds i8, ptr %this, i64 8
  %3 = load ptr, ptr %m_allocator.i, align 8
  tail call void @_ZN22small_object_allocator10deallocateEmPv(ptr noundef nonnull align 8 dereferenceable(520) %3, i64 noundef 40, ptr noundef nonnull %c)
  br label %if.end

if.end:                                           ; preds = %_ZN16psort_inst_cacheD2Ev.exit, %entry
  ret void
}